(dp0
S'total_time'
p1
(lp2
F18.298563957214355
aF34.18304395675659
aF51.31221795082092
aF99.30696702003479
aF160.0830421447754
aF215.52170586585999
asS'config_file'
p3
(lp4
S'lys.config'
p5
aS'lys2.config'
p6
aS'lys4.config'
p7
aS'lys8.config'
p8
aS'lys12.config'
p9
aS'lys16.config'
p10
asS'geo_file'
p11
(lp12
S'/home/gil/git/pygbe/performance/geometry'
p13
aS'/home/gil/git/pygbe/performance/geometry'
p14
aS'/home/gil/git/pygbe/performance/geometry'
p15
aS'/home/gil/git/pygbe/performance/geometry'
p16
aS'/home/gil/git/pygbe/performance/geometry'
p17
aS'/home/gil/git/pygbe/performance/geometry'
p18
asS'output_file'
p19
(lp20
S'2016-07-20-174738-output.log'
p21
aS'2016-07-20-174757-output.log'
p22
aS'2016-07-20-174832-output.log'
p23
aS'2016-07-20-174924-output.log'
p24
aS'2016-07-20-175103-output.log'
p25
aS'2016-07-20-175344-output.log'
p26
asS'total_elements'
p27
(lp28
I30170
aI51386
aI96108
aI183852
aI277396
aI374726
asS'E_solv_kJ'
p29
(lp30
cnumpy.core.multiarray
scalar
p31
(cnumpy
dtype
p32
(S'f8'
p33
I0
I1
tp34
Rp35
(I3
S'<'
p36
NNNI-1
I-1
I0
tp37
bS'OqR\x01\xaa\x01\xa3\xc0'
p38
tp39
Rp40
ag31
(g35
S"\x8d\x1e\xa6y\xb3'\xa1\xc0"
p41
tp42
Rp43
ag31
(g35
S'\xa2\x04\x19\xb5b\x98\xa0\xc0'
p44
tp45
Rp46
ag31
(g35
S'\xb1\x8a\x98\xad!j\xa0\xc0'
p47
tp48
Rp49
ag31
(g35
S'P\xf9\xd5\xc8\xd0]\xa0\xc0'
p50
tp51
Rp52
ag31
(g35
S'/\x8a`\xa5[U\xa0\xc0'
p53
tp54
Rp55
asS'E_coul_kcal'
p56
(lp57
g31
(g35
S'\xf0\x03\x88q(\xb2\xbe\xc0'
p58
tp59
Rp60
ag31
(g35
S'\xf0\x03\x88q(\xb2\xbe\xc0'
p61
tp62
Rp63
ag31
(g35
S'\xf0\x03\x88q(\xb2\xbe\xc0'
p64
tp65
Rp66
ag31
(g35
S'\xf0\x03\x88q(\xb2\xbe\xc0'
p67
tp68
Rp69
ag31
(g35
S'\xf0\x03\x88q(\xb2\xbe\xc0'
p70
tp71
Rp72
ag31
(g35
S'\xf0\x03\x88q(\xb2\xbe\xc0'
p73
tp74
Rp75
asS'solve_time'
p76
(lp77
F16.044846057891846
aF30.564003229141235
aF44.42797088623047
aF86.83972311019897
aF140.52292013168335
aF188.8660569190979
asS'param_file'
p78
(lp79
S'lys.param'
p80
aS'lys.param'
p81
aS'lys.param'
p82
aS'lys.param'
p83
aS'lys.param'
p84
aS'lys.param'
p85
asS'E_coul_kJ'
p86
(lp87
g31
(g35
S'\xe0$R\x0e\xd1\r\xe0\xc0'
p88
tp89
Rp90
ag31
(g35
S'\xe0$R\x0e\xd1\r\xe0\xc0'
p91
tp92
Rp93
ag31
(g35
S'\xe0$R\x0e\xd1\r\xe0\xc0'
p94
tp95
Rp96
ag31
(g35
S'\xe0$R\x0e\xd1\r\xe0\xc0'
p97
tp98
Rp99
ag31
(g35
S'\xe0$R\x0e\xd1\r\xe0\xc0'
p100
tp101
Rp102
ag31
(g35
S'\xe0$R\x0e\xd1\r\xe0\xc0'
p103
tp104
Rp105
asS'N_equation'
p106
(lp107
I60340
aI102772
aI192216
aI367704
aI554792
aI749452
asS'full_path'
p108
(lp109
S'/home/gil/git/pygbe/performance'
p110
aS'/home/gil/git/pygbe/performance'
p111
aS'/home/gil/git/pygbe/performance'
p112
aS'/home/gil/git/pygbe/performance'
p113
aS'/home/gil/git/pygbe/performance'
p114
aS'/home/gil/git/pygbe/performance'
p115
asS'E_solv_kcal'
p116
(lp117
g31
(g35
S'X\xb1\xb1\xbe\xaf+\x82\xc0'
p118
tp119
Rp120
ag31
(g35
S'Y\xa2x&\x91f\x80\xc0'
p121
tp122
Rp123
ag31
(g35
S'\x820e\xb1\x1b\xbb\x7f\xc0'
p124
tp125
Rp126
ag31
(g35
S'\xa0\xf4\xfe\x19\xabb\x7f\xc0'
p127
tp128
Rp129
ag31
(g35
S'\x10\xe3\xd2\x9f\x1eK\x7f\xc0'
p130
tp131
Rp132
ag31
(g35
S'\x1c$\xb6\xc7\xf2:\x7f\xc0'
p133
tp134
Rp135
as.